; Function Attrs: nounwind uwtable
define internal zeroext i1 @SerialPagePrecedesLogically(i64 noundef %0, i64 noundef %1) #0 {
  %.tr = trunc i64 %0 to i32
  %3 = shl i32 %.tr, 10
  %4 = or disjoint i32 %3, 4
  %.tr8 = trunc i64 %1 to i32
  %5 = shl i32 %.tr8, 10
  %6 = or disjoint i32 %5, 4
  %7 = tail call zeroext i1 @TransactionIdPrecedes(i32 noundef %4, i32 noundef %6) #12
  br i1 %7, label %8, label %11

8:                                                ; preds = %2
  %9 = add i32 %5, 1027
  %10 = tail call zeroext i1 @TransactionIdPrecedes(i32 noundef %4, i32 noundef %9) #12
  br label %11

11:                                               ; preds = %8, %2
  %12 = phi i1 [ false, %2 ], [ %10, %8 ]
  ret i1 %12
}